; Function Attrs: nounwind uwtable
define ptr @l_Lean_Elab_WF_GuessLex_GuessLexRel_toNatRel___boxed(ptr noundef %0) local_unnamed_addr #1 {
  %2 = ptrtoint ptr %0 to i64
  %3 = lshr i64 %2, 1
  %4 = trunc i64 %3 to i8
  %5 = and i64 %2, 1
  %.not = icmp eq i64 %5, 0
  br i1 %.not, label %6, label %lean_dec.exit

6:                                                ; preds = %1
  %7 = load i32, ptr %0, align 4, !tbaa !8
  %8 = icmp sgt i32 %7, 1
  br i1 %8, label %9, label %11, !prof !11

9:                                                ; preds = %6
  %10 = add nsw i32 %7, -1
  store i32 %10, ptr %0, align 4, !tbaa !8
  br label %lean_dec.exit

11:                                               ; preds = %6
  %.not.i = icmp eq i32 %7, 0
  br i1 %.not.i, label %lean_dec.exit, label %12

12:                                               ; preds = %11
  tail call void @lean_dec_ref_cold(ptr noundef nonnull %0) #8
  br label %lean_dec.exit

lean_dec.exit:                                    ; preds = %12, %11, %9, %1
  switch i8 %4, label %19 [
    i8 0, label %13
    i8 1, label %15
    i8 2, label %17
  ]

13:                                               ; preds = %lean_dec.exit
  %14 = load ptr, ptr @l_Lean_Elab_WF_GuessLex_GuessLexRel_toNatRel___closed__10, align 8, !tbaa !4
  br label %l_Lean_Elab_WF_GuessLex_GuessLexRel_toNatRel.exit

15:                                               ; preds = %lean_dec.exit
  %16 = load ptr, ptr @l_Lean_Elab_WF_GuessLex_GuessLexRel_toNatRel___closed__17, align 8, !tbaa !4
  br label %l_Lean_Elab_WF_GuessLex_GuessLexRel_toNatRel.exit

17:                                               ; preds = %lean_dec.exit
  %18 = load ptr, ptr @l_Lean_Elab_WF_GuessLex_GuessLexRel_toNatRel___closed__25, align 8, !tbaa !4
  br label %l_Lean_Elab_WF_GuessLex_GuessLexRel_toNatRel.exit

19:                                               ; preds = %lean_dec.exit
  %20 = load ptr, ptr @l_Lean_Elab_WF_GuessLex_GuessLexRel_toNatRel___closed__28, align 8, !tbaa !4
  %21 = tail call ptr @l_panic___at_Lean_Expr_appFn_x21___spec__1(ptr noundef %20) #8
  br label %l_Lean_Elab_WF_GuessLex_GuessLexRel_toNatRel.exit

l_Lean_Elab_WF_GuessLex_GuessLexRel_toNatRel.exit: ; preds = %13, %15, %17, %19
  %.0.i = phi ptr [ %21, %19 ], [ %18, %17 ], [ %16, %15 ], [ %14, %13 ]
  ret ptr %.0.i
}